ccopy_reg
_reconstructor
p0
(cprofessor.minimize.result
ResultList
p1
c__builtin__
list
p2
(lp3
g0
(cprofessor.minimize.result
MinimizationResult
p4
c__builtin__
object
p5
Ntp6
Rp7
(dp8
S'_gof'
p9
F0.37285618329561421
sS'errors'
p10
cnumpy.core.multiarray
_reconstruct
p11
(cprofessor.params.base
ParameterErrors
p12
(I0
tp13
S'b'
p14
tp15
Rp16
((I1
(I1
I2
tp17
cnumpy
dtype
p18
(S'f8'
p19
I0
I1
tp20
Rp21
(I3
S'<'
p22
NNNI-1
I-1
I0
tp23
bI00
S't\xef\x06j\xd5\xb3\x97?t\xef\x06j\xd5\xb3\x97?'
p24
tp25
((cnumpy.core.multiarray
scalar
p26
(g18
(S'S8'
p27
I0
I1
tp28
Rp29
(I3
S'|'
p30
NNNI8
I1
I0
tp31
bS'alphaSMZ'
p32
tp33
Rp34
tp35
I1
Ntp36
tp37
bsS'_limited'
p38
(dp39
sS'_ndof'
p40
F178.0
sS'covariance'
p41
g11
(cprofessor.params.base
ParameterMatrix
p42
(I0
tp43
g14
tp44
Rp45
((I1
(I1
I1
tp46
g21
I00
S'\xa9r\x8biu\x8eA?'
p47
tp48
((g26
(g18
(S'S8'
p49
I0
I1
tp50
Rp51
(I3
S'|'
p52
NNNI8
I1
I0
tp53
bS'alphaSMZ'
p54
tp55
Rp56
tp57
I1
Ntp58
tp59
bsS'values'
p60
g11
(cprofessor.minimize.result
ParameterTune
p61
(I0
tp62
g14
tp63
Rp64
(((I1
(I1
tp65
g21
I00
S'/\x89\xd4\xc8A\xe4\xbc?'
p66
tp67
((g26
(g18
(S'S8'
p68
I0
I1
tp69
Rp70
(I3
S'|'
p71
NNNI8
I1
I0
tp72
bS'alphaSMZ'
p73
tp74
Rp75
tp76
I1
Ntp77
tp78
((lp79
S'000'
p80
aS'001'
p81
aS'002'
p82
aS'003'
p83
aS'004'
p84
aS'005'
p85
aS'006'
p86
aS'007'
p87
aS'008'
p88
aS'009'
p89
a(lp90
S'/ATLAS_2015_I1404878_Parton/d39-x01-y01'
p91
aS'/ATLAS_2015_I1404878_custom/pt_lepton'
p92
aS'/ATLAS_2014_I1304688_custom/d02-x04-y01'
p93
aS'/ATLAS_2014_I1304688_custom/d02-x01-y01'
p94
aS'/ATLAS_2015_I1404878_Parton/d24-x01-y01'
p95
aS'/ATLAS_2015_I1404878_Parton/d34-x01-y01'
p96
aS'/ATLAS_2015_I1404878_custom/d01-x01-y01'
p97
aS'/ATLAS_2014_I1304688_custom/d02-x02-y01'
p98
aS'/ATLAS_2015_I1404878_custom/d21-x01-y01'
p99
aS'/ATLAS_2015_I1404878_Parton/d33-x01-y01'
p100
aS'/ATLAS_2015_I1404878_Parton/d35-x01-y01'
p101
aS'/ATLAS_2014_I1304688_custom/d02-x05-y01'
p102
aS'/ATLAS_2014_I1304688_custom/d01-x03-y01'
p103
aS'/ATLAS_2015_I1404878_Parton/d27-x01-y01'
p104
aS'/ATLAS_2015_I1404878_custom/d07-x01-y01'
p105
aS'/ATLAS_2015_I1404878_custom/d19-x01-y01'
p106
aS'/ATLAS_2015_I1404878_custom/d11-x01-y01'
p107
aS'/ATLAS_2015_I1404878_Parton/d23-x01-y01'
p108
aS'/ATLAS_2015_I1404878_custom/d15-x01-y01'
p109
aS'/ATLAS_2015_I1404878_Parton/d30-x01-y01'
p110
aS'/ATLAS_2015_I1404878_Parton/d36-x01-y01'
p111
aS'/ATLAS_2015_I1404878_Parton/d38-x01-y01'
p112
aS'/ATLAS_2014_I1304688_custom/d01-x04-y01'
p113
aS'/ATLAS_2014_I1304688_custom/d02-x03-y01'
p114
aS'/ATLAS_2015_I1404878_custom/d09-x01-y01'
p115
aS'/ATLAS_2015_I1404878_Parton/d32-x01-y01'
p116
aS'/ATLAS_2015_I1404878_Parton/d42-x01-y01'
p117
aS'/ATLAS_2015_I1404878_Parton/d40-x01-y01'
p118
aS'/ATLAS_2015_I1404878_Parton/d31-x01-y01'
p119
aS'/ATLAS_2015_I1404878_Parton/d37-x01-y01'
p120
aS'/ATLAS_2015_I1404878_Parton/d41-x01-y01'
p121
aS'/ATLAS_2015_I1404878_custom/d03-x01-y01'
p122
aS'/ATLAS_2015_I1404878_custom/d05-x01-y01'
p123
aS'/ATLAS_2015_I1404878_Parton/d28-x01-y01'
p124
aS'/ATLAS_2015_I1404878_Parton/d26-x01-y01'
p125
aS'/ATLAS_2015_I1404878_custom/d17-x01-y01'
p126
aS'/ATLAS_2014_I1304688_custom/d01-x02-y01'
p127
aS'/ATLAS_2015_I1404878_Parton/d29-x01-y01'
p128
aS'/ATLAS_2015_I1404878_custom/d13-x01-y01'
p129
aS'/ATLAS_2015_I1404878_Parton/d25-x01-y01'
p130
aS'/ATLAS_2015_I1404878_custom/h_selected_events'
p131
aS'/ATLAS_2014_I1304688_custom/d01-x01-y01'
p132
atp133
tp134
bsS'startpointmethod'
p135
S'center'
p136
sS'_fixed'
p137
c__builtin__
set
p138
((lp139
tp140
Rp141
sS'ipolmethod'
p142
cprofessor.interpolation.interpolationweave
GenericWeaveBinInterpolation
p143
sbatp144
Rp145
.