ccopy_reg
_reconstructor
p1
(cprofessor.minimize.result
ResultList
p2
c__builtin__
list
p3
(lp4
g1
(cprofessor.minimize.result
MinimizationResult
p5
c__builtin__
object
p6
NtRp7
(dp8
S'_gof'
p9
F0.37285618329561421
sS'errors'
p10
cnumpy.core.multiarray
_reconstruct
p11
(cprofessor.params.base
ParameterErrors
p12
(I0
tS'b'
tRp13
((I1
(I1
I2
tcnumpy
dtype
p14
(S'f8'
I0
I1
tRp15
(I3
S'<'
NNNI-1
I-1
I0
tbI00
S't\xef\x06j\xd5\xb3\x97?t\xef\x06j\xd5\xb3\x97?'
t((cnumpy.core.multiarray
scalar
p16
(g14
(S'S8'
I0
I1
tRp17
(I3
S'|'
NNNI8
I1
I0
tbS'alphaSMZ'
tRp18
tp19
I1
NttbsS'_limited'
p20
(dp21
sS'_ndof'
p22
F178
sS'covariance'
p23
g11
(cprofessor.params.base
ParameterMatrix
p24
(I0
tS'b'
tRp25
((I1
(I1
I1
tg15
I00
S'\xa9r\x8biu\x8eA?'
t((g16
(g14
(S'S8'
I0
I1
tRp26
(I3
S'|'
NNNI8
I1
I0
tbS'alphaSMZ'
tRp27
tp28
I1
NttbsS'values'
p29
g11
(cprofessor.minimize.result
ParameterTune
p30
(I0
tS'b'
tRp31
(((I1
(I1
tg15
I00
S'/\x89\xd4\xc8A\xe4\xbc?'
t((g16
(g14
(S'S8'
I0
I1
tRp32
(I3
S'|'
NNNI8
I1
I0
tbS'alphaSMZ'
tRp33
tp34
I1
Ntt((lp35
S'000'
p36
aS'001'
p37
aS'002'
p38
aS'003'
p39
aS'004'
p40
aS'005'
p41
aS'006'
p42
aS'007'
p43
aS'008'
p44
aS'009'
p45
a(lp46
S'/ATLAS_2015_I1404878_Parton/d39-x01-y01'
p47
aS'/ATLAS_2015_I1404878_custom/pt_lepton'
p48
aS'/ATLAS_2014_I1304688_custom/d02-x04-y01'
p49
aS'/ATLAS_2014_I1304688_custom/d02-x01-y01'
p50
aS'/ATLAS_2015_I1404878_Parton/d24-x01-y01'
p51
aS'/ATLAS_2015_I1404878_Parton/d34-x01-y01'
p52
aS'/ATLAS_2015_I1404878_custom/d01-x01-y01'
p53
aS'/ATLAS_2014_I1304688_custom/d02-x02-y01'
p54
aS'/ATLAS_2015_I1404878_custom/d21-x01-y01'
p55
aS'/ATLAS_2015_I1404878_Parton/d33-x01-y01'
p56
aS'/ATLAS_2015_I1404878_Parton/d35-x01-y01'
p57
aS'/ATLAS_2014_I1304688_custom/d02-x05-y01'
p58
aS'/ATLAS_2014_I1304688_custom/d01-x03-y01'
p59
aS'/ATLAS_2015_I1404878_Parton/d27-x01-y01'
p60
aS'/ATLAS_2015_I1404878_custom/d07-x01-y01'
p61
aS'/ATLAS_2015_I1404878_custom/d19-x01-y01'
p62
aS'/ATLAS_2015_I1404878_custom/d11-x01-y01'
p63
aS'/ATLAS_2015_I1404878_Parton/d23-x01-y01'
p64
aS'/ATLAS_2015_I1404878_custom/d15-x01-y01'
p65
aS'/ATLAS_2015_I1404878_Parton/d30-x01-y01'
p66
aS'/ATLAS_2015_I1404878_Parton/d36-x01-y01'
p67
aS'/ATLAS_2015_I1404878_Parton/d38-x01-y01'
p68
aS'/ATLAS_2014_I1304688_custom/d01-x04-y01'
p69
aS'/ATLAS_2014_I1304688_custom/d02-x03-y01'
p70
aS'/ATLAS_2015_I1404878_custom/d09-x01-y01'
p71
aS'/ATLAS_2015_I1404878_Parton/d32-x01-y01'
p72
aS'/ATLAS_2015_I1404878_Parton/d42-x01-y01'
p73
aS'/ATLAS_2015_I1404878_Parton/d40-x01-y01'
p74
aS'/ATLAS_2015_I1404878_Parton/d31-x01-y01'
p75
aS'/ATLAS_2015_I1404878_Parton/d37-x01-y01'
p76
aS'/ATLAS_2015_I1404878_Parton/d41-x01-y01'
p77
aS'/ATLAS_2015_I1404878_custom/d03-x01-y01'
p78
aS'/ATLAS_2015_I1404878_custom/d05-x01-y01'
p79
aS'/ATLAS_2015_I1404878_Parton/d28-x01-y01'
p80
aS'/ATLAS_2015_I1404878_Parton/d26-x01-y01'
p81
aS'/ATLAS_2015_I1404878_custom/d17-x01-y01'
p82
aS'/ATLAS_2014_I1304688_custom/d01-x02-y01'
p83
aS'/ATLAS_2015_I1404878_Parton/d29-x01-y01'
p84
aS'/ATLAS_2015_I1404878_custom/d13-x01-y01'
p85
aS'/ATLAS_2015_I1404878_Parton/d25-x01-y01'
p86
aS'/ATLAS_2015_I1404878_custom/h_selected_events'
p87
aS'/ATLAS_2014_I1304688_custom/d01-x01-y01'
p88
attbsS'startpointmethod'
p89
S'center'
p90
sS'_fixed'
p91
c__builtin__
set
p92
((ltRp93
sS'ipolmethod'
p94
cprofessor.interpolation.interpolationweave
GenericWeaveBinInterpolation
p95
sbatRp96
.